; Function Attrs: mustprogress uwtable
define void @_ZN2cv35createShapeContextDistanceExtractorEiiffiRKNS_3PtrINS_22HistogramCostExtractorEEERKNS0_INS_16ShapeTransformerEEE(ptr dead_on_unwind noalias writable writeonly sret(%"struct.cv::Ptr.16") align 8 captures(none) %0, i32 noundef %1, i32 noundef %2, float noundef %3, float noundef %4, i32 noundef %5, ptr noundef nonnull align 8 dereferenceable(16) %6, ptr noundef nonnull align 8 dereferenceable(16) %7) local_unnamed_addr #3 personality ptr @__gxx_personality_v0 {
  %9 = tail call noalias noundef nonnull dereferenceable(312) ptr @_Znwm(i64 noundef 312) #28
  invoke void @_ZN2cv33ShapeContextDistanceExtractorImplC2EiiffiRKNS_3PtrINS_22HistogramCostExtractorEEERKNS1_INS_16ShapeTransformerEEE(ptr noundef nonnull align 8 dereferenceable(312) %9, i32 noundef %1, i32 noundef %2, float noundef %3, float noundef %4, i32 noundef %5, ptr noundef nonnull align 8 dereferenceable(16) %6, ptr noundef nonnull align 8 dereferenceable(16) %7)
          to label %10 unwind label %29

10:                                               ; preds = %8
  store ptr %9, ptr %0, align 8, !tbaa !142
  %11 = getelementptr inbounds nuw i8, ptr %0, i64 8
  store ptr null, ptr %11, align 8, !tbaa !73
  %12 = invoke noalias noundef nonnull dereferenceable(24) ptr @_Znwm(i64 noundef 24) #28
          to label %_ZN2cv3PtrINS_29ShapeContextDistanceExtractorEEC2INS_33ShapeContextDistanceExtractorImplEEEPT_.exit unwind label %13

13:                                               ; preds = %10
  %14 = landingpad { ptr, i32 }
          catch ptr null
  %15 = extractvalue { ptr, i32 } %14, 0
  %16 = tail call ptr @__cxa_begin_catch(ptr %15) #24
  %17 = load ptr, ptr %9, align 8, !tbaa !80
  %18 = getelementptr inbounds nuw i8, ptr %17, i64 8
  %19 = load ptr, ptr %18, align 8
  tail call void %19(ptr noundef nonnull align 8 dereferenceable(312) %9) #24
  invoke void @__cxa_rethrow() #25
          to label %25 unwind label %20

20:                                               ; preds = %13
  %21 = landingpad { ptr, i32 }
          cleanup
  invoke void @__cxa_end_catch()
          to label %common.resume unwind label %22

common.resume:                                    ; preds = %20, %29
  %common.resume.op = phi { ptr, i32 } [ %30, %29 ], [ %21, %20 ]
  resume { ptr, i32 } %common.resume.op

22:                                               ; preds = %20
  %23 = landingpad { ptr, i32 }
          catch ptr null
  %24 = extractvalue { ptr, i32 } %23, 0
  tail call void @__clang_call_terminate(ptr %24) #27
  unreachable

25:                                               ; preds = %13
  unreachable

_ZN2cv3PtrINS_29ShapeContextDistanceExtractorEEC2INS_33ShapeContextDistanceExtractorImplEEEPT_.exit: ; preds = %10
  %26 = getelementptr inbounds nuw i8, ptr %12, i64 8
  store i32 1, ptr %26, align 8, !tbaa !114
  %27 = getelementptr inbounds nuw i8, ptr %12, i64 12
  store i32 1, ptr %27, align 4, !tbaa !116
  store ptr getelementptr inbounds nuw inrange(-16, 40) (i8, ptr @_ZTVSt15_Sp_counted_ptrIPN2cv33ShapeContextDistanceExtractorImplELN9__gnu_cxx12_Lock_policyE2EE, i64 16), ptr %12, align 8, !tbaa !80
  %28 = getelementptr inbounds nuw i8, ptr %12, i64 16
  store ptr %9, ptr %28, align 8, !tbaa !145
  store ptr %12, ptr %11, align 8, !tbaa !73
  ret void

29:                                               ; preds = %8
  %30 = landingpad { ptr, i32 }
          cleanup
  tail call void @_ZdlPv(ptr noundef nonnull %9) #26
  br label %common.resume
}